; Function Attrs: nounwind uwtable
define internal void @mi_out_buf_stderr(ptr noundef %0, ptr readnone captures(none) %1) #1 {
  %.not.i = icmp eq ptr %0, null
  br i1 %.not.i, label %mi_out_buf.exit, label %3

3:                                                ; preds = %2
  %4 = load i8, ptr %0, align 1, !tbaa !3
  %.not3.i = icmp eq i8 %4, 0
  br i1 %.not3.i, label %6, label %5

5:                                                ; preds = %3
  tail call void @_mi_prim_out_stderr(ptr noundef nonnull %0) #16
  br label %6

6:                                                ; preds = %3, %5
  %7 = load atomic i64, ptr @out_len monotonic, align 8
  %8 = icmp ugt i64 %7, 16383
  br i1 %8, label %mi_out_buf.exit, label %9

9:                                                ; preds = %6
  %10 = tail call i64 @_mi_strlen(ptr noundef nonnull %0) #16
  %11 = icmp eq i64 %10, 0
  br i1 %11, label %mi_out_buf.exit, label %12

12:                                               ; preds = %9
  %13 = atomicrmw add ptr @out_len, i64 %10 acq_rel, align 8
  %14 = icmp ugt i64 %13, 16383
  br i1 %14, label %mi_out_buf.exit, label %15

15:                                               ; preds = %12
  %16 = add i64 %13, %10
  %17 = icmp ugt i64 %16, 16383
  %18 = sub nuw nsw i64 16383, %13
  %spec.select.i = select i1 %17, i64 %18, i64 %10
  %19 = getelementptr inbounds nuw [16385 x i8], ptr @out_buf, i64 0, i64 %13
  tail call void @llvm.memcpy.p0.p0.i64(ptr nonnull align 1 %19, ptr nonnull readonly align 1 %0, i64 %spec.select.i, i1 false)
  br label %mi_out_buf.exit

mi_out_buf.exit:                                  ; preds = %2, %6, %9, %12, %15
  ret void
}